(dp0
S'\x00'
p1
I0
sS' '
p2
I4
sS'$'
p3
I8
sS'('
p4
I12
sS','
p5
I16
sS'0'
p6
I20
sS'4'
p7
I24
sS'8'
p8
I28
sS'<'
p9
I32
sS'@'
p10
I36
sS'D'
p11
I40
sS'H'
p12
I44
sS'\xcb'
p13
I100
sS'L'
p14
I48
sS'P'
p15
I52
sS'T'
p16
I56
sS'X'
p17
I60
sS'\\'
p18
I64
sS'`'
p19
I68
sS'd'
p20
I72
sS'h'
p21
I76
sS'l'
p22
I80
sS'p'
p23
I84
sS't'
p24
I88
sS'x'
p25
I92
sS'|'
p26
I96
sS'\xff'
p27
I105
sS'\x13'
p28
I3
sS'#'
p29
I7
sS"'"
p30
I11
sS'+'
p31
I15
sS'/'
p32
I19
sS'3'
p33
I23
sS'7'
p34
I27
sS';'
p35
I31
sS'?'
p36
I35
sS'C'
p37
I39
sS'G'
p38
I43
sS'K'
p39
I47
sS'\xcc'
p40
I101
sS'O'
p41
I51
sS'S'
p42
I55
sS'W'
p43
I59
sS'['
p44
I63
sS'_'
p45
I67
sS'c'
p46
I71
sS'g'
p47
I75
sS'k'
p48
I79
sS'o'
p49
I83
sS's'
p50
I87
sS'w'
p51
I91
sS'{'
p52
I95
sS'\n'
p53
I1
sS'"'
p54
I6
sS'&'
p55
I10
sS'*'
p56
I14
sS'.'
p57
I18
sS'2'
p58
I22
sS'6'
p59
I26
sS':'
p60
I30
sS'>'
p61
I34
sS'B'
p62
I38
sS'F'
p63
I42
sS'J'
p64
I46
sS'N'
p65
I50
sS'R'
p66
I54
sS'V'
p67
I58
sS'Z'
p68
I62
sS'^'
p69
I66
sS'b'
p70
I70
sS'\xe5'
p71
I103
sS'f'
p72
I74
sS'j'
p73
I78
sS'n'
p74
I82
sS'r'
p75
I86
sS'v'
p76
I90
sS'z'
p77
I94
sS'~'
p78
I98
sS'\r'
p79
I2
sS'!'
p80
I5
sS'%'
p81
I9
sS')'
p82
I13
sS'-'
p83
I17
sS'\xae'
p84
I99
sS'1'
p85
I21
sS'5'
p86
I25
sS'9'
p87
I29
sS'='
p88
I33
sS'A'
p89
I37
sS'E'
p90
I41
sS'I'
p91
I45
sS'M'
p92
I49
sS'\xce'
p93
I102
sS'Q'
p94
I53
sS'U'
p95
I57
sS'Y'
p96
I61
sS']'
p97
I65
sS'a'
p98
I69
sS'e'
p99
I73
sS'i'
p100
I77
sS'm'
p101
I81
sS'q'
p102
I85
sS'u'
p103
I89
sS'y'
p104
I93
sS'}'
p105
I97
sS'\xfe'
p106
I104
s.